target datalayout = "e-m:e-p270:32:32-p271:32:32-p272:64:64-i64:64-i128:128-f80:128-n8:16:32:64-S128"
target triple = "x86_64-unknown-linux-gnu"

%"class.smt::eq_justification" = type { ptr }
%"class.smt::enode" = type { ptr, ptr, ptr, ptr, i32, i32, i32, i16, i32, i8, i8, %class.ptr_vector, %class.id_var_list, %"struct.smt::trans_justification", %class.approx_set, %class.approx_set, [0 x ptr] }
%class.ptr_vector = type { %class.vector }
%class.vector = type { ptr }
%class.id_var_list = type { i32, ptr }
%"struct.smt::trans_justification" = type { ptr, %"class.smt::eq_justification" }
%class.approx_set = type { %class.approx_set_tpl }
%class.approx_set_tpl = type { i64 }
%"class.smt::tmp_enode" = type { %class.tmp_app, i32, ptr }
%class.tmp_app = type { i32, ptr }

; Function Attrs: mustprogress nounwind uwtable
define linkonce_odr hidden noundef ptr @_ZN7tmp_app7get_appEv(ptr noundef nonnull align 8 dereferenceable(16) %this) #4 comdat align 2 {
entry:
  %this.addr = alloca ptr, align 8
  store ptr %this, ptr %this.addr, align 8
  %this1 = load ptr, ptr %this.addr, align 8
  %m_data = getelementptr inbounds %class.tmp_app, ptr %this1, i32 0, i32 1
  %0 = load ptr, ptr %m_data, align 8
  ret ptr %0
}

; Function Attrs: mustprogress nounwind uwtable
define linkonce_odr hidden noundef ptr @_ZN3smt9tmp_enode9get_enodeEv(ptr noundef nonnull align 8 dereferenceable(32) %this) #4 comdat align 2 {
entry:
  %this.addr = alloca ptr, align 8
  store ptr %this, ptr %this.addr, align 8
  %this1 = load ptr, ptr %this.addr, align 8
  %m_enode_data = getelementptr inbounds %"class.smt::tmp_enode", ptr %this1, i32 0, i32 2
  %0 = load ptr, ptr %m_enode_data, align 8
  ret ptr %0
}

; Function Attrs: mustprogress uwtable
define linkonce_odr hidden void @_Z13dealloc_svectIcEvPT_(ptr noundef %ptr) #5 comdat {
entry:
  %ptr.addr = alloca ptr, align 8
  store ptr %ptr, ptr %ptr.addr, align 8
  %0 = load ptr, ptr %ptr.addr, align 8
  %cmp = icmp eq ptr %0, null
  br i1 %cmp, label %if.then, label %if.end

if.then:                                          ; preds = %entry
  br label %return

if.end:                                           ; preds = %entry
  %1 = load ptr, ptr %ptr.addr, align 8
  call void @_ZN6memory10deallocateEPv(ptr noundef %1)
  br label %return

return:                                           ; preds = %if.end, %if.then
  ret void
}

; Function Attrs: mustprogress uwtable
define hidden void @_ZN3smt9tmp_enode12set_capacityEj(ptr noundef nonnull align 8 dereferenceable(32) %this, i32 noundef %new_capacity) #5 align 2 {
entry:
  %this.addr = alloca ptr, align 8
  %new_capacity.addr = alloca i32, align 4
  %sz = alloca i32, align 4
  %n = alloca ptr, align 8
  store ptr %this, ptr %this.addr, align 8
  store i32 %new_capacity, ptr %new_capacity.addr, align 4
  %this1 = load ptr, ptr %this.addr, align 8
  %m_enode_data = getelementptr inbounds %"class.smt::tmp_enode", ptr %this1, i32 0, i32 2
  %0 = load ptr, ptr %m_enode_data, align 8
  %tobool = icmp ne ptr %0, null
  br i1 %tobool, label %if.then, label %if.end

if.then:                                          ; preds = %entry
  %m_enode_data2 = getelementptr inbounds %"class.smt::tmp_enode", ptr %this1, i32 0, i32 2
  %1 = load ptr, ptr %m_enode_data2, align 8
  call void @_Z13dealloc_svectIcEvPT_(ptr noundef %1)
  br label %if.end

if.end:                                           ; preds = %if.then, %entry
  %2 = load i32, ptr %new_capacity.addr, align 4
  %m_capacity = getelementptr inbounds %"class.smt::tmp_enode", ptr %this1, i32 0, i32 1
  store i32 %2, ptr %m_capacity, align 8
  %m_capacity3 = getelementptr inbounds %"class.smt::tmp_enode", ptr %this1, i32 0, i32 1
  %3 = load i32, ptr %m_capacity3, align 8
  %conv = zext i32 %3 to i64
  %mul = mul i64 %conv, 8
  %add = add i64 112, %mul
  %conv4 = trunc i64 %add to i32
  store i32 %conv4, ptr %sz, align 4
  %4 = load i32, ptr %sz, align 4
  %conv5 = zext i32 %4 to i64
  %mul6 = mul i64 1, %conv5
  %call = call noalias noundef ptr @_ZN6memory8allocateEm(i64 noundef %mul6)
  %m_enode_data7 = getelementptr inbounds %"class.smt::tmp_enode", ptr %this1, i32 0, i32 2
  store ptr %call, ptr %m_enode_data7, align 8
  %m_enode_data8 = getelementptr inbounds %"class.smt::tmp_enode", ptr %this1, i32 0, i32 2
  %5 = load ptr, ptr %m_enode_data8, align 8
  %6 = load i32, ptr %sz, align 4
  %conv9 = zext i32 %6 to i64
  call void @llvm.memset.p0.i64(ptr align 1 %5, i8 0, i64 %conv9, i1 false)
  %call10 = call noundef ptr @_ZN3smt9tmp_enode9get_enodeEv(ptr noundef nonnull align 8 dereferenceable(32) %this1)
  store ptr %call10, ptr %n, align 8
  %m_app = getelementptr inbounds %"class.smt::tmp_enode", ptr %this1, i32 0, i32 0
  %call11 = call noundef ptr @_ZN7tmp_app7get_appEv(ptr noundef nonnull align 8 dereferenceable(16) %m_app)
  %7 = load ptr, ptr %n, align 8
  %m_owner = getelementptr inbounds %"class.smt::enode", ptr %7, i32 0, i32 0
  store ptr %call11, ptr %m_owner, align 8
  %8 = load ptr, ptr %n, align 8
  %9 = load ptr, ptr %n, align 8
  %m_root = getelementptr inbounds %"class.smt::enode", ptr %9, i32 0, i32 1
  store ptr %8, ptr %m_root, align 8
  %10 = load ptr, ptr %n, align 8
  %11 = load ptr, ptr %n, align 8
  %m_next = getelementptr inbounds %"class.smt::enode", ptr %11, i32 0, i32 2
  store ptr %10, ptr %m_next, align 8
  %12 = load ptr, ptr %n, align 8
  %m_class_size = getelementptr inbounds %"class.smt::enode", ptr %12, i32 0, i32 4
  store i32 1, ptr %m_class_size, align 8
  %13 = load ptr, ptr %n, align 8
  %m_cgc_enabled = getelementptr inbounds %"class.smt::enode", ptr %13, i32 0, i32 7
  %bf.load = load i16, ptr %m_cgc_enabled, align 4
  %bf.clear = and i16 %bf.load, -257
  %bf.set = or i16 %bf.clear, 256
  store i16 %bf.set, ptr %m_cgc_enabled, align 4
  %14 = load ptr, ptr %n, align 8
  %m_func_decl_id = getelementptr inbounds %"class.smt::enode", ptr %14, i32 0, i32 6
  store i32 -1, ptr %m_func_decl_id, align 8
  ret void
}