; Function Attrs: mustprogress uwtable
define hidden void @_ZN3smt9tmp_enode12set_capacityEj(ptr nocapture noundef nonnull align 8 dereferenceable(32) %this, i32 noundef %new_capacity) local_unnamed_addr #3 align 2 {
entry:
  %m_enode_data = getelementptr inbounds i8, ptr %this, i64 24
  %0 = load ptr, ptr %m_enode_data, align 8
  %tobool.not = icmp eq ptr %0, null
  br i1 %tobool.not, label %if.end, label %_Z13dealloc_svectIcEvPT_.exit

_Z13dealloc_svectIcEvPT_.exit:                    ; preds = %entry
  tail call void @_ZN6memory10deallocateEPv(ptr noundef nonnull %0)
  br label %if.end

if.end:                                           ; preds = %_Z13dealloc_svectIcEvPT_.exit, %entry
  %m_capacity = getelementptr inbounds i8, ptr %this, i64 16
  store i32 %new_capacity, ptr %m_capacity, align 8
  %mul = shl i32 %new_capacity, 3
  %add = add i32 %mul, 112
  %conv5 = zext i32 %add to i64
  %call = tail call noalias noundef ptr @_ZN6memory8allocateEm(i64 noundef %conv5)
  store ptr %call, ptr %m_enode_data, align 8
  tail call void @llvm.memset.p0.i64(ptr align 1 %call, i8 0, i64 %conv5, i1 false)
  %m_data.i = getelementptr inbounds i8, ptr %this, i64 8
  %1 = load ptr, ptr %m_data.i, align 8
  store ptr %1, ptr %call, align 8
  %m_root = getelementptr inbounds i8, ptr %call, i64 8
  store ptr %call, ptr %m_root, align 8
  %m_next = getelementptr inbounds i8, ptr %call, i64 16
  store ptr %call, ptr %m_next, align 8
  %m_class_size = getelementptr inbounds i8, ptr %call, i64 32
  store i32 1, ptr %m_class_size, align 8
  %m_cgc_enabled = getelementptr inbounds i8, ptr %call, i64 44
  %bf.load = load i16, ptr %m_cgc_enabled, align 4
  %bf.set = or i16 %bf.load, 256
  store i16 %bf.set, ptr %m_cgc_enabled, align 4
  %m_func_decl_id = getelementptr inbounds i8, ptr %call, i64 40
  store i32 -1, ptr %m_func_decl_id, align 8
  ret void
}